Certificate:
    Data:
        Version: 3 (0x2)
        Serial Number:
            38:34:6a:ba:65:6b:04:b9:44:05:7f:34:34:7b:e9:ae
        Signature Algorithm: sha1WithRSAEncryption
        Issuer: C=ES, O=DIRECCION GENERAL DE LA POLICIA, OU=DNIE, CN=AC RAIZ DNIE
        Validity
            Not Before: Mar  1 11:02:12 2006 GMT
            Not After : Feb 26 22:59:59 2021 GMT
        Subject: C=ES, O=DIRECCION GENERAL DE LA POLICIA, OU=DNIE, CN=AC DNIE 002
        Subject Public Key Info:
            Public Key Algorithm: rsaEncryption
                Public-Key: (2048 bit)
                Modulus:
                    00:b5:95:36:96:c2:82:e9:8a:64:b8:0f:03:d7:82:
                    16:66:23:41:e6:0f:4b:79:43:8f:0d:e0:01:e9:b2:
                    d3:40:98:84:e3:61:1e:df:b0:17:60:c1:81:9d:eb:
                    ff:03:c0:ce:84:53:62:c2:e6:a4:cf:56:da:70:23:
                    b2:ba:09:fc:d2:39:1d:8d:7a:c8:ff:09:6c:ca:26:
                    e1:7d:fd:e8:36:73:b0:1d:35:64:b8:c1:b0:3f:9d:
                    3b:7b:c9:e4:39:53:07:fb:c0:ab:f9:e1:98:15:d6:
                    06:f2:d8:f0:38:07:07:48:15:22:0c:5a:2c:1d:5b:
                    72:6d:91:67:a1:eb:c9:92:4a:45:59:cd:95:58:ea:
                    74:72:bb:ed:b3:c8:7a:8b:0c:42:2e:78:5f:2b:87:
                    e2:4c:3c:6d:30:93:8f:a7:66:ab:74:2f:3b:7d:d6:
                    0e:a2:b3:58:6a:98:93:80:cb:68:56:a3:a7:26:c7:
                    bd:ad:41:a0:de:9f:6c:e4:80:52:bb:a7:b9:77:9f:
                    d0:5a:3f:87:41:ef:d1:a0:42:4b:0a:f3:d8:ef:4d:
                    4e:c6:3b:95:f2:94:fe:27:cc:74:e6:be:4f:bc:64:
                    5e:a3:d5:39:2b:d2:0c:01:24:a8:88:8b:7e:66:0c:
                    61:5a:d1:a8:1f:c5:9d:72:2a:10:6b:9c:7e:80:28:
                    c9:93
                Exponent: 65537 (0x10001)
        X509v3 extensions:
            X509v3 Basic Constraints: critical
                CA:TRUE, pathlen:0
            X509v3 Subject Key Identifier: 
                3A:A6:89:EC:15:E8:24:64:71:E0:25:7E:C9:B1:62:31:07:E9:06:A2
            X509v3 Authority Key Identifier: 
                keyid:8E:45:F4:9F:73:C5:FF:2F:1B:05:DB:01:47:60:1B:03:8A:81:B7:BA

            X509v3 Key Usage: critical
                Certificate Sign, CRL Sign
            X509v3 Certificate Policies: 
                Policy: X509v3 Any Policy
                  CPS: http://www.dnie.es/dpc

            X509v3 CRL Distribution Points: 

                Full Name:
                  URI:http://crls.dnie.es/crls/ARL.crl
                  URI:ldap://ldap.dnie.es/CN=CRL,CN=AC%20RAIZ%20DNIE,OU=DNIE,O=DIRECCION%20GENERAL%20DE%20LA%20POLICIA,C=ES?authorityRevocationList?base?objectclass=cRLDistributionPoint

    Signature Algorithm: sha1WithRSAEncryption
        74:4c:96:6e:25:9b:a9:55:1d:a9:00:ca:5d:05:66:64:16:00:
        c1:e5:8c:31:84:6b:11:04:ac:a2:ba:75:db:96:3f:7f:b9:5f:
        40:c8:a1:34:a7:92:4d:f2:62:94:82:a0:b3:f0:6f:a6:1d:55:
        c4:18:ca:e9:a8:fb:11:9c:b8:31:04:b5:d1:27:32:79:c4:a8:
        92:07:f3:9d:48:cf:a1:90:12:ef:24:7b:41:25:f4:19:35:23:
        fe:6b:49:59:f4:2f:d7:7b:38:8c:57:59:a3:ec:c4:f0:ed:0f:
        19:ff:cb:80:c2:1d:aa:9a:ec:8f:50:d1:08:36:4c:06:ed:af:
        05:5d:a9:c1:22:ba:51:d1:54:24:c3:dc:49:87:d1:81:05:ad:
        84:74:43:3e:ca:77:b9:59:64:ba:17:dc:7c:9d:3d:fd:ea:1c:
        5c:34:88:a6:65:9f:00:29:1e:3b:e9:32:75:cf:f7:c1:97:5f:
        a1:15:82:72:23:e4:24:34:4a:92:39:a1:9f:7a:b0:4c:3c:90:
        6d:90:bf:0d:b4:5f:b4:5d:ba:51:f4:d2:32:05:34:14:9b:57:
        80:8f:fb:52:a6:e9:00:b5:c7:90:2a:04:b3:3c:f7:86:d9:a7:
        cf:61:13:6c:7f:05:e9:29:d1:f2:ae:04:db:9e:04:27:23:4e:
        8b:42:a1:25:ae:37:78:9e:c6:fd:13:cb:80:3f:84:8e:e5:bf:
        0f:23:75:95:94:70:d9:c4:c4:d2:5d:c9:05:32:76:34:c6:5e:
        e3:e1:01:f0:23:2d:b4:50:1f:22:da:75:27:a4:ba:e4:54:9c:
        d5:3f:32:45:f9:e9:86:d7:89:b2:14:6a:6c:9f:cb:d9:53:7c:
        91:d1:05:75:eb:af:3c:f9:e1:e5:a6:88:b3:f5:1d:db:31:52:
        5a:9a:83:69:78:d7:74:83:49:5c:49:e2:70:ca:a5:6a:ca:ef:
        21:31:37:d8:66:a2:42:d2:e9:89:f8:75:8d:a8:ba:61:62:bb:
        4d:93:d0:28:f2:3a:22:3a:a5:f6:83:6c:22:97:7f:cb:2e:97:
        c4:96:28:5b:cc:52:6e:d9:e2:63:2a:67:6a:3a:e9:9b:8f:0b:
        c1:bd:4d:71:63:e1:21:d7:89:94:a2:62:8b:82:f0:e0:5f:bb:
        bb:41:06:53:6b:7a:3d:d9:28:14:62:1c:7f:8e:9a:34:dd:e6:
        3f:33:01:9a:28:6c:92:b2:b0:f8:da:a1:53:52:c3:a1:97:70:
        ca:f8:70:79:5e:8b:57:47:72:a5:63:7e:fc:47:92:1e:c6:6f:
        ef:39:0a:01:53:7b:1c:87:0d:23:bd:41:92:7d:56:f0:f5:45:
        84:95:94:73:ad:a7:ed:90
-----BEGIN CERTIFICATE-----
MIIFxTCCA62gAwIBAgIQODRqumVrBLlEBX80NHvprjANBgkqhkiG9w0BAQUFADBd
MQswCQYDVQQGEwJFUzEoMCYGA1UECgwfRElSRUNDSU9OIEdFTkVSQUwgREUgTEEg
UE9MSUNJQTENMAsGA1UECwwERE5JRTEVMBMGA1UEAwwMQUMgUkFJWiBETklFMB4X
DTA2MDMwMTExMDIxMloXDTIxMDIyNjIyNTk1OVowXDELMAkGA1UEBhMCRVMxKDAm
BgNVBAoMH0RJUkVDQ0lPTiBHRU5FUkFMIERFIExBIFBPTElDSUExDTALBgNVBAsM
BEROSUUxFDASBgNVBAMMC0FDIEROSUUgMDAyMIIBIjANBgkqhkiG9w0BAQEFAAOC
AQ8AMIIBCgKCAQEAtZU2lsKC6YpkuA8D14IWZiNB5g9LeUOPDeAB6bLTQJiE42Ee
37AXYMGBnev/A8DOhFNiwuakz1bacCOyugn80jkdjXrI/wlsyibhff3oNnOwHTVk
uMGwP507e8nkOVMH+8Cr+eGYFdYG8tjwOAcHSBUiDFosHVtybZFnoevJkkpFWc2V
WOp0crvts8h6iwxCLnhfK4fiTDxtMJOPp2ardC87fdYOorNYapiTgMtoVqOnJse9
rUGg3p9s5IBSu6e5d5/QWj+HQe/RoEJLCvPY701OxjuV8pT+J8x05r5PvGReo9U5
K9IMASSoiIt+ZgxhWtGoH8WdcioQa5x+gCjJkwIDAQABo4IBgDCCAXwwEgYDVR0T
AQH/BAgwBgEB/wIBADAdBgNVHQ4EFgQUOqaJ7BXoJGRx4CV+ybFiMQfpBqIwHwYD
VR0jBBgwFoAUjkX0n3PF/y8bBdsBR2AbA4qBt7owDgYDVR0PAQH/BAQDAgEGMDcG
A1UdIAQwMC4wLAYEVR0gADAkMCIGCCsGAQUFBwIBFhZodHRwOi8vd3d3LmRuaWUu
ZXMvZHBjMIHcBgNVHR8EgdQwgdEwgc6ggcuggciGIGh0dHA6Ly9jcmxzLmRuaWUu
ZXMvY3Jscy9BUkwuY3JshoGjbGRhcDovL2xkYXAuZG5pZS5lcy9DTj1DUkwsQ049
QUMlMjBSQUlaJTIwRE5JRSxPVT1ETklFLE89RElSRUNDSU9OJTIwR0VORVJBTCUy
MERFJTIwTEElMjBQT0xJQ0lBLEM9RVM/YXV0aG9yaXR5UmV2b2NhdGlvbkxpc3Q/
YmFzZT9vYmplY3RjbGFzcz1jUkxEaXN0cmlidXRpb25Qb2ludDANBgkqhkiG9w0B
AQUFAAOCAgEAdEyWbiWbqVUdqQDKXQVmZBYAweWMMYRrEQSsorp125Y/f7lfQMih
NKeSTfJilIKgs/Bvph1VxBjK6aj7EZy4MQS10ScyecSokgfznUjPoZAS7yR7QSX0
GTUj/mtJWfQv13s4jFdZo+zE8O0PGf/LgMIdqprsj1DRCDZMBu2vBV2pwSK6UdFU
JMPcSYfRgQWthHRDPsp3uVlkuhfcfJ09/eocXDSIpmWfACkeO+kydc/3wZdfoRWC
ciPkJDRKkjmhn3qwTDyQbZC/DbRftF26UfTSMgU0FJtXgI/7UqbpALXHkCoEszz3
htmnz2ETbH8F6SnR8q4E254EJyNOi0KhJa43eJ7G/RPLgD+EjuW/DyN1lZRw2cTE
0l3JBTJ2NMZe4+EB8CMttFAfItp1J6S65FSc1T8yRfnphteJshRqbJ/L2VN8kdEF
deuvPPnh5aaIs/Ud2zFSWpqDaXjXdINJXEnicMqlasrvITE32GaiQtLpifh1jai6
YWK7TZPQKPI6Ijql9oNsIpd/yy6XxJYoW8xSbtniYypnajrpm48Lwb1NcWPhIdeJ
lKJii4Lw4F+7u0EGU2t6PdkoFGIcf46aNN3mPzMBmihskrKw+NqhU1LDoZdwyvhw
eV6LV0dypWN+/EeSHsZv7zkKAVN7HIcNI71Bkn1W8PVFhJWUc62n7ZA=
-----END CERTIFICATE-----
