Certificate:
    Data:
        Version: 3 (0x2)
        Serial Number:
            64:20:66:c9:99:7b:ae:e1:44:02:da:6e:a4:22:d6:49
        Signature Algorithm: sha1WithRSAEncryption
        Issuer: C=ES, O=DIRECCION GENERAL DE LA POLICIA, OU=DNIE, CN=AC RAIZ DNIE
        Validity
            Not Before: Feb 27 10:54:38 2006 GMT
            Not After : Feb 26 22:59:59 2021 GMT
        Subject: C=ES, O=DIRECCION GENERAL DE LA POLICIA, OU=DNIE, CN=AC DNIE 001
        Subject Public Key Info:
            Public Key Algorithm: rsaEncryption
                Public-Key: (2048 bit)
                Modulus:
                    00:ac:fe:4a:99:d2:e4:a7:fd:8d:0f:ee:7b:8c:b9:
                    d7:fb:89:35:7f:ce:99:df:a4:c6:ae:fc:b7:32:e0:
                    0d:57:e7:ed:f0:d6:cd:3b:16:5c:a5:c1:92:3f:0e:
                    96:61:af:a6:d3:32:9f:85:0f:ac:40:44:c7:84:c1:
                    cc:a3:b1:9b:ea:79:61:a8:29:8d:4e:94:dd:8f:7e:
                    4a:d0:19:f9:99:a2:e7:4c:4f:05:f3:fa:7f:ea:94:
                    fd:08:ba:c4:3d:85:79:79:7e:ce:6c:d0:a2:aa:4d:
                    af:9e:e5:90:31:c5:40:c1:15:f4:ef:b4:18:18:a3:
                    73:5b:df:29:f4:ac:62:ab:89:98:65:14:74:39:b9:
                    f1:60:d7:7a:d5:60:dc:cc:e7:6e:3f:90:bf:75:42:
                    2b:1a:4d:c9:7c:52:c8:34:b1:95:d1:df:fd:11:a7:
                    87:97:bc:e3:93:33:98:c8:24:9c:1a:af:ad:96:b9:
                    0a:56:05:ba:05:0c:08:fe:05:f0:e1:74:58:36:11:
                    63:08:03:f3:6f:c7:1a:2d:eb:f1:43:11:a7:cd:15:
                    19:f1:d4:ce:50:e7:aa:80:e6:75:15:77:cd:ba:28:
                    3b:2a:87:a4:e2:a9:1d:c9:02:a8:c1:83:69:e1:2d:
                    cd:c1:eb:ae:bd:bb:1b:3c:96:6a:57:30:aa:cf:00:
                    aa:f7
                Exponent: 65537 (0x10001)
        X509v3 extensions:
            X509v3 Basic Constraints: critical
                CA:TRUE, pathlen:0
            X509v3 Subject Key Identifier: 
                1A:89:A8:C5:EE:8F:76:5D:55:71:89:F3:3B:35:BD:AA:05:00:95:6F
            X509v3 Authority Key Identifier: 
                keyid:8E:45:F4:9F:73:C5:FF:2F:1B:05:DB:01:47:60:1B:03:8A:81:B7:BA

            X509v3 Key Usage: critical
                Certificate Sign, CRL Sign
            X509v3 Certificate Policies: 
                Policy: X509v3 Any Policy
                  CPS: http://www.dnie.es/dpc

            X509v3 CRL Distribution Points: 

                Full Name:
                  URI:http://crls.dnie.es/crls/ARL.crl
                  URI:ldap://ldap.dnie.es/CN=CRL,CN=AC%20RAIZ%20DNIE,OU=DNIE,O=DIRECCION%20GENERAL%20DE%20LA%20POLICIA,C=ES?authorityRevocationList?base?objectclass=cRLDistributionPoint

    Signature Algorithm: sha1WithRSAEncryption
        67:58:ff:6b:b2:1f:3a:67:09:fe:07:ab:22:e5:18:9c:11:24:
        e8:76:e5:d3:9a:63:49:3b:5a:39:fd:ed:f0:2c:52:e7:de:38:
        d2:27:9d:18:37:76:6e:e0:1b:1d:5a:14:94:ad:dd:e1:0f:27:
        bf:4a:ac:b3:45:cc:9f:a0:ad:a3:be:42:16:7d:84:87:2c:59:
        7a:4e:9e:0e:36:e6:05:47:0a:ed:53:c4:5a:48:cc:75:06:54:
        8c:32:31:69:ae:26:7d:bc:4c:18:0f:81:c7:64:9f:7f:4c:e3:
        71:db:2e:c4:49:c3:cd:85:e6:af:d9:65:3f:b7:ea:5f:cf:3d:
        ec:c4:5a:a0:a3:f9:2a:4e:d8:69:cb:b8:f6:3a:ed:3d:46:13:
        0a:d0:07:ba:76:43:ca:db:06:48:e2:ed:f1:38:45:0d:a8:bc:
        90:8b:3c:1d:ff:1d:88:9b:c1:50:68:f2:f4:59:52:7a:8a:9f:
        8a:e0:2f:81:d3:c9:b5:59:cd:79:dc:6d:11:ea:39:fe:81:9c:
        df:ef:4b:d3:63:c6:aa:8e:28:3e:0c:6d:14:27:09:d8:e9:6c:
        32:f8:79:8f:17:fc:59:6f:e8:72:49:d5:ba:93:6d:79:b2:aa:
        d3:bd:90:ef:6a:0b:20:2c:bd:bd:a4:42:b7:9c:46:4f:e9:54:
        d2:84:58:5d:3f:8d:e3:57:9e:1d:85:b9:48:73:12:56:ac:db:
        73:6b:89:e2:96:31:30:59:63:4f:1e:62:3f:43:6c:2a:c3:b0:
        37:a8:ab:fc:ec:a7:1e:c1:cd:6c:2f:60:96:3d:74:3e:24:90:
        90:c7:54:f2:a0:f2:81:b7:ff:e0:e1:58:c3:3f:f8:46:8c:e1:
        68:c5:33:0f:66:17:b6:23:a9:17:c5:39:47:27:a2:10:70:d9:
        d2:50:a4:27:aa:46:b7:b7:06:2c:f8:4b:cb:3a:98:77:c8:b3:
        61:3b:54:55:73:66:24:6a:e3:e7:87:f5:00:6e:14:2a:2c:7d:
        23:0f:17:cf:55:b2:02:36:d2:ba:3f:19:9f:ce:05:3f:22:2b:
        b2:02:2d:95:f9:2d:19:28:0c:c4:5d:7c:e5:b6:b3:c5:0b:47:
        ca:8b:f9:78:1a:2c:8b:d1:fe:3c:19:7e:08:f7:90:db:73:b3:
        26:d0:8a:e0:5b:2c:76:99:4f:74:c0:40:78:76:86:22:7c:4b:
        66:9b:ed:d6:a8:c9:9c:d2:2c:d1:06:97:2b:21:e3:e8:f7:28:
        37:53:03:81:8a:39:c9:60:23:d5:93:c5:e1:28:71:89:4e:93:
        04:71:fd:4b:1c:2d:b4:d9:b1:90:a1:64:35:81:70:4f:79:ca:
        ab:d8:fa:e8:a4:77:0b:67
-----BEGIN CERTIFICATE-----
MIIFxTCCA62gAwIBAgIQZCBmyZl7ruFEAtpupCLWSTANBgkqhkiG9w0BAQUFADBd
MQswCQYDVQQGEwJFUzEoMCYGA1UECgwfRElSRUNDSU9OIEdFTkVSQUwgREUgTEEg
UE9MSUNJQTENMAsGA1UECwwERE5JRTEVMBMGA1UEAwwMQUMgUkFJWiBETklFMB4X
DTA2MDIyNzEwNTQzOFoXDTIxMDIyNjIyNTk1OVowXDELMAkGA1UEBhMCRVMxKDAm
BgNVBAoMH0RJUkVDQ0lPTiBHRU5FUkFMIERFIExBIFBPTElDSUExDTALBgNVBAsM
BEROSUUxFDASBgNVBAMMC0FDIEROSUUgMDAxMIIBIjANBgkqhkiG9w0BAQEFAAOC
AQ8AMIIBCgKCAQEArP5KmdLkp/2ND+57jLnX+4k1f86Z36TGrvy3MuANV+ft8NbN
OxZcpcGSPw6WYa+m0zKfhQ+sQETHhMHMo7Gb6nlhqCmNTpTdj35K0Bn5maLnTE8F
8/p/6pT9CLrEPYV5eX7ObNCiqk2vnuWQMcVAwRX077QYGKNzW98p9Kxiq4mYZRR0
ObnxYNd61WDczOduP5C/dUIrGk3JfFLINLGV0d/9EaeHl7zjkzOYyCScGq+tlrkK
VgW6BQwI/gXw4XRYNhFjCAPzb8caLevxQxGnzRUZ8dTOUOeqgOZ1FXfNuig7Koek
4qkdyQKowYNp4S3NweuuvbsbPJZqVzCqzwCq9wIDAQABo4IBgDCCAXwwEgYDVR0T
AQH/BAgwBgEB/wIBADAdBgNVHQ4EFgQUGomoxe6Pdl1VcYnzOzW9qgUAlW8wHwYD
VR0jBBgwFoAUjkX0n3PF/y8bBdsBR2AbA4qBt7owDgYDVR0PAQH/BAQDAgEGMDcG
A1UdIAQwMC4wLAYEVR0gADAkMCIGCCsGAQUFBwIBFhZodHRwOi8vd3d3LmRuaWUu
ZXMvZHBjMIHcBgNVHR8EgdQwgdEwgc6ggcuggciGIGh0dHA6Ly9jcmxzLmRuaWUu
ZXMvY3Jscy9BUkwuY3JshoGjbGRhcDovL2xkYXAuZG5pZS5lcy9DTj1DUkwsQ049
QUMlMjBSQUlaJTIwRE5JRSxPVT1ETklFLE89RElSRUNDSU9OJTIwR0VORVJBTCUy
MERFJTIwTEElMjBQT0xJQ0lBLEM9RVM/YXV0aG9yaXR5UmV2b2NhdGlvbkxpc3Q/
YmFzZT9vYmplY3RjbGFzcz1jUkxEaXN0cmlidXRpb25Qb2ludDANBgkqhkiG9w0B
AQUFAAOCAgEAZ1j/a7IfOmcJ/gerIuUYnBEk6Hbl05pjSTtaOf3t8CxS59440ied
GDd2buAbHVoUlK3d4Q8nv0qss0XMn6Cto75CFn2EhyxZek6eDjbmBUcK7VPEWkjM
dQZUjDIxaa4mfbxMGA+Bx2Sff0zjcdsuxEnDzYXmr9llP7fqX8897MRaoKP5Kk7Y
acu49jrtPUYTCtAHunZDytsGSOLt8ThFDai8kIs8Hf8diJvBUGjy9FlSeoqfiuAv
gdPJtVnNedxtEeo5/oGc3+9L02PGqo4oPgxtFCcJ2OlsMvh5jxf8WW/ocknVupNt
ebKq072Q72oLICy9vaRCt5xGT+lU0oRYXT+N41eeHYW5SHMSVqzbc2uJ4pYxMFlj
Tx5iP0NsKsOwN6ir/OynHsHNbC9glj10PiSQkMdU8qDygbf/4OFYwz/4RozhaMUz
D2YXtiOpF8U5RyeiEHDZ0lCkJ6pGt7cGLPhLyzqYd8izYTtUVXNmJGrj54f1AG4U
Kix9Iw8Xz1WyAjbSuj8Zn84FPyIrsgItlfktGSgMxF185bazxQtHyov5eBosi9H+
PBl+CPeQ23OzJtCK4FssdplPdMBAeHaGInxLZpvt1qjJnNIs0QaXKyHj6PcoN1MD
gYo5yWAj1ZPF4ShxiU6TBHH9SxwttNmxkKFkNYFwT3nKq9j66KR3C2c=
-----END CERTIFICATE-----
