Certificate:
    Data:
        Version: 3 (0x2)
        Serial Number:
            43:2f:e2:1f:63:11:bc:0b:4c:aa:ef:70:4a:70:4f:40
        Signature Algorithm: sha1WithRSAEncryption
        Issuer: C=ES, O=DIRECCION GENERAL DE LA POLICIA, OU=DNIE, CN=AC DNIE 001
        Validity
            Not Before: Oct  5 09:27:12 2010 GMT
            Not After : Apr  5 09:27:12 2011 GMT
        Subject: C=ES, O=DIRECCION GENERAL DE LA POLICIA, OU=DNIE, OU=FNMT, CN=AV DNIE FNMT
        Subject Public Key Info:
            Public Key Algorithm: rsaEncryption
                Public-Key: (2048 bit)
                Modulus:
                    00:a2:57:ba:dc:0e:76:62:3e:53:6a:6a:b9:8a:3e:
                    ef:2c:14:3e:8a:2f:26:ee:60:01:f3:4f:14:02:31:
                    29:a3:33:c5:2f:e7:b6:ab:2b:2f:6c:f5:82:9a:0e:
                    9e:5e:f7:af:6a:12:22:b1:b7:ab:f8:4e:7a:33:ce:
                    8b:ea:5e:c5:a1:46:b0:58:68:af:ed:bd:33:e7:7e:
                    62:47:f1:6f:d2:c2:c5:e5:be:9f:6d:0b:18:7a:11:
                    80:96:b3:6e:ad:da:7a:03:e7:59:70:ba:ba:b9:6d:
                    c8:a7:d7:11:31:88:1c:d4:6a:b1:e7:ef:7d:7e:d1:
                    4b:73:90:d7:26:b0:d4:c5:16:23:a6:c2:d4:30:a3:
                    e2:01:60:30:0d:17:ce:34:6b:d9:3c:fa:1c:a2:66:
                    93:78:ad:ee:09:4c:98:36:c3:98:fc:52:16:0e:f7:
                    54:f2:70:d9:a6:1f:21:4c:d6:1b:85:61:78:25:a4:
                    ce:12:bc:16:6c:73:1d:76:fc:5e:98:02:ca:08:14:
                    25:89:7c:81:2b:e7:80:84:00:a8:e8:6a:6d:00:df:
                    bf:2c:aa:78:8b:40:a5:f6:8d:a4:bf:4a:f4:61:94:
                    ca:fc:fe:6f:a8:ac:e6:a8:39:aa:0e:04:fe:5e:d6:
                    d9:39:e1:3d:de:9b:51:e2:58:0d:01:16:f6:bc:32:
                    4c:43
                Exponent: 65537 (0x10001)
        X509v3 extensions:
            X509v3 Key Usage: critical
                Digital Signature, Non Repudiation, Key Agreement
            X509v3 Subject Key Identifier: 
                C6:B1:6F:34:C1:BB:4D:54:81:16:EA:E9:5F:1C:7A:EC:7D:29:95:F4
            X509v3 Authority Key Identifier: 
                keyid:1A:89:A8:C5:EE:8F:76:5D:55:71:89:F3:3B:35:BD:AA:05:00:95:6F

            Authority Information Access: 
                CA Issuers - URI:http://www.dnie.es/certs/ACRaiz.crt

            X509v3 Extended Key Usage: 
                OCSP Signing
            OCSP No Check: 

            X509v3 Certificate Policies: 
                Policy: 2.16.724.1.2.2.2.5
                  CPS: http://www.dnie.es/dpc

            X509v3 Basic Constraints: 
                CA:FALSE
    Signature Algorithm: sha1WithRSAEncryption
        70:ae:94:0f:b0:5d:83:b7:41:6f:00:17:2f:5b:58:8e:10:99:
        30:e3:d4:6d:1a:b9:62:af:48:5b:55:2f:dd:23:6b:ff:98:fa:
        f6:5d:1b:cc:dc:b7:b6:76:e9:47:c7:32:18:9a:9d:e1:b0:89:
        7c:3d:b8:3d:cd:ea:f8:7c:93:f8:05:9a:3e:d8:29:0e:44:05:
        54:3e:93:76:c8:1e:dc:34:c8:01:5d:24:ed:77:9f:d3:6b:16:
        41:08:b0:bd:97:d8:5f:c6:70:4e:ef:be:0f:d9:c8:1d:8f:ae:
        90:fb:d2:c3:1c:b0:70:87:40:cc:45:2b:83:7d:0e:62:95:a1:
        84:bf:28:8c:22:4c:70:df:a6:09:9e:f2:1f:9c:b5:63:a4:40:
        3c:97:9d:bb:15:44:27:39:44:fc:44:33:0e:dc:c9:7f:4b:2a:
        65:5e:a1:9a:e3:af:25:54:16:44:16:42:af:7b:2f:8d:40:38:
        2c:a3:c1:f5:ca:47:74:cc:fd:5e:97:f5:9a:a2:17:d7:14:3b:
        7c:b9:5e:aa:50:f4:6d:7f:0d:67:f7:7d:c3:a8:6d:dc:e7:00:
        c2:00:64:35:1d:2b:e1:4a:eb:99:df:dd:27:86:95:14:85:e7:
        1a:64:95:86:25:b3:80:60:77:98:9b:8a:0c:c2:07:d6:a3:85:
        68:e2:47:11
-----BEGIN CERTIFICATE-----
MIIEVjCCAz6gAwIBAgIQQy/iH2MRvAtMqu9wSnBPQDANBgkqhkiG9w0BAQUFADBc
MQswCQYDVQQGEwJFUzEoMCYGA1UECgwfRElSRUNDSU9OIEdFTkVSQUwgREUgTEEg
UE9MSUNJQTENMAsGA1UECwwERE5JRTEUMBIGA1UEAwwLQUMgRE5JRSAwMDEwHhcN
MTAxMDA1MDkyNzEyWhcNMTEwNDA1MDkyNzEyWjBsMQswCQYDVQQGEwJFUzEoMCYG
A1UECgwfRElSRUNDSU9OIEdFTkVSQUwgREUgTEEgUE9MSUNJQTENMAsGA1UECwwE
RE5JRTENMAsGA1UECwwERk5NVDEVMBMGA1UEAwwMQVYgRE5JRSBGTk1UMIIBIjAN
BgkqhkiG9w0BAQEFAAOCAQ8AMIIBCgKCAQEAole63A52Yj5Tamq5ij7vLBQ+ii8m
7mAB808UAjEpozPFL+e2qysvbPWCmg6eXvevahIisber+E56M86L6l7FoUawWGiv
7b0z535iR/Fv0sLF5b6fbQsYehGAlrNurdp6A+dZcLq6uW3Ip9cRMYgc1Gqx5+99
ftFLc5DXJrDUxRYjpsLUMKPiAWAwDRfONGvZPPocomaTeK3uCUyYNsOY/FIWDvdU
8nDZph8hTNYbhWF4JaTOErwWbHMddvxemALKCBQliXyBK+eAhACo6GptAN+/LKp4
i0Cl9o2kv0r0YZTK/P5vqKzmqDmqDgT+XtbZOeE93ptR4lgNARb2vDJMQwIDAQAB
o4IBAjCB/zAOBgNVHQ8BAf8EBAMCA8gwHQYDVR0OBBYEFMaxbzTBu01UgRbq6V8c
eux9KZX0MB8GA1UdIwQYMBaAFBqJqMXuj3ZdVXGJ8zs1vaoFAJVvMD8GCCsGAQUF
BwEBBDMwMTAvBggrBgEFBQcwAoYjaHR0cDovL3d3dy5kbmllLmVzL2NlcnRzL0FD
UmFpei5jcnQwEwYDVR0lBAwwCgYIKwYBBQUHAwkwDwYJKwYBBQUHMAEFBAIFADA7
BgNVHSAENDAyMDAGCGCFVAECAgIFMCQwIgYIKwYBBQUHAgEWFmh0dHA6Ly93d3cu
ZG5pZS5lcy9kcGMwCQYDVR0TBAIwADANBgkqhkiG9w0BAQUFAAOCAQEAcK6UD7Bd
g7dBbwAXL1tYjhCZMOPUbRq5Yq9IW1Uv3SNr/5j69l0bzNy3tnbpR8cyGJqd4bCJ
fD24Pc3q+HyT+AWaPtgpDkQFVD6Tdsge3DTIAV0k7Xef02sWQQiwvZfYX8ZwTu++
D9nIHY+ukPvSwxywcIdAzEUrg30OYpWhhL8ojCJMcN+mCZ7yH5y1Y6RAPJeduxVE
JzlE/EQzDtzJf0sqZV6hmuOvJVQWRBZCr3svjUA4LKPB9cpHdMz9Xpf1mqIX1xQ7
fLleqlD0bX8NZ/d9w6ht3OcAwgBkNR0r4Urrmd/dJ4aVFIXnGmSVhiWzgGB3mJuK
DMIH1qOFaOJHEQ==
-----END CERTIFICATE-----
